; Function Attrs: mustprogress nofree norecurse nosync nounwind willreturn memory(write, argmem: none, inaccessiblemem: none) uwtable
define hidden noundef i32 @zm_activate_url_scanner_ex(i32 noundef %0, i32 noundef %1) local_unnamed_addr #5 {
  store i32 0, ptr getelementptr inbounds (%struct._php_basic_globals, ptr @basic_globals, i64 0, i32 25, i32 7), align 8
  store i32 0, ptr getelementptr inbounds (%struct._php_basic_globals, ptr @basic_globals, i64 0, i32 25, i32 12), align 8
  store i32 0, ptr getelementptr inbounds (%struct._php_basic_globals, ptr @basic_globals, i64 0, i32 25, i32 13), align 4
  store i32 0, ptr getelementptr inbounds (%struct._php_basic_globals, ptr @basic_globals, i64 0, i32 27, i32 7), align 8
  store i32 0, ptr getelementptr inbounds (%struct._php_basic_globals, ptr @basic_globals, i64 0, i32 27, i32 12), align 8
  store i32 0, ptr getelementptr inbounds (%struct._php_basic_globals, ptr @basic_globals, i64 0, i32 27, i32 13), align 4
  ret i32 0
}